; Function Attrs: nounwind uwtable
define void @glfwSetWindowAttrib(ptr noundef %0, i32 noundef %1, i32 noundef %2) local_unnamed_addr #0 {
  %4 = load i32, ptr @_glfw, align 8, !tbaa !138
  %.not = icmp eq i32 %4, 0
  br i1 %.not, label %5, label %6

5:                                                ; preds = %3
  tail call void (i32, ptr, ...) @_glfwInputError(i32 noundef 65537, ptr noundef null) #7
  br label %34

6:                                                ; preds = %3
  %.not26 = icmp ne i32 %2, 0
  %7 = zext i1 %.not26 to i32
  switch i32 %1, label %33 [
    i32 131078, label %8
    i32 131075, label %10
    i32 131077, label %16
    i32 131079, label %22
    i32 131084, label %28
    i32 131085, label %30
  ]

8:                                                ; preds = %6
  %9 = getelementptr inbounds nuw i8, ptr %0, i64 16
  store i32 %7, ptr %9, align 8, !tbaa !167
  br label %34

10:                                               ; preds = %6
  %11 = getelementptr inbounds nuw i8, ptr %0, i64 8
  store i32 %7, ptr %11, align 8, !tbaa !163
  %12 = getelementptr inbounds nuw i8, ptr %0, i64 80
  %13 = load ptr, ptr %12, align 8, !tbaa !137
  %.not29 = icmp eq ptr %13, null
  br i1 %.not29, label %14, label %34

14:                                               ; preds = %10
  %15 = load ptr, ptr getelementptr inbounds nuw (i8, ptr @_glfw, i64 496), align 8, !tbaa !270
  tail call void %15(ptr noundef nonnull %0, i32 noundef %7) #7
  br label %34

16:                                               ; preds = %6
  %17 = getelementptr inbounds nuw i8, ptr %0, i64 12
  store i32 %7, ptr %17, align 4, !tbaa !165
  %18 = getelementptr inbounds nuw i8, ptr %0, i64 80
  %19 = load ptr, ptr %18, align 8, !tbaa !137
  %.not28 = icmp eq ptr %19, null
  br i1 %.not28, label %20, label %34

20:                                               ; preds = %16
  %21 = load ptr, ptr getelementptr inbounds nuw (i8, ptr @_glfw, i64 504), align 8, !tbaa !271
  tail call void %21(ptr noundef nonnull %0, i32 noundef %7) #7
  br label %34

22:                                               ; preds = %6
  %23 = getelementptr inbounds nuw i8, ptr %0, i64 20
  store i32 %7, ptr %23, align 4, !tbaa !169
  %24 = getelementptr inbounds nuw i8, ptr %0, i64 80
  %25 = load ptr, ptr %24, align 8, !tbaa !137
  %.not27 = icmp eq ptr %25, null
  br i1 %.not27, label %26, label %34

26:                                               ; preds = %22
  %27 = load ptr, ptr getelementptr inbounds nuw (i8, ptr @_glfw, i64 512), align 8, !tbaa !272
  tail call void %27(ptr noundef nonnull %0, i32 noundef %7) #7
  br label %34

28:                                               ; preds = %6
  %29 = getelementptr inbounds nuw i8, ptr %0, i64 24
  store i32 %7, ptr %29, align 8, !tbaa !171
  br label %34

30:                                               ; preds = %6
  %31 = getelementptr inbounds nuw i8, ptr %0, i64 28
  store i32 %7, ptr %31, align 4, !tbaa !173
  %32 = load ptr, ptr getelementptr inbounds nuw (i8, ptr @_glfw, i64 528), align 8, !tbaa !273
  tail call void %32(ptr noundef %0, i32 noundef %7) #7
  br label %34

33:                                               ; preds = %6
  tail call void (i32, ptr, ...) @_glfwInputError(i32 noundef 65539, ptr noundef nonnull @.str.9, i32 noundef %1) #7
  br label %34

34:                                               ; preds = %22, %26, %16, %20, %10, %14, %33, %30, %28, %8, %5
  ret void
}